target datalayout = "e-m:e-p270:32:32-p271:32:32-p272:64:64-i64:64-i128:128-f80:128-n8:16:32:64-S128"
target triple = "x86_64-pc-linux-gnu"

%"struct.std::atomic" = type { %"struct.std::__atomic_base" }
%"struct.std::__atomic_base" = type { i64 }
%"struct.(anonymous namespace)::cq_next_data" = type <{ %"class.(anonymous namespace)::CqEventQueue", %"struct.std::atomic", %"struct.std::atomic", i8, [7 x i8] }>
%"class.(anonymous namespace)::CqEventQueue" = type { %struct.gpr_spinlock, %"class.grpc_core::MultiProducerSingleConsumerQueue", %"struct.std::atomic" }
%struct.gpr_spinlock = type { i64 }
%"class.grpc_core::MultiProducerSingleConsumerQueue" = type { %union.anon.11, ptr, %"struct.grpc_core::MultiProducerSingleConsumerQueue::Node" }
%union.anon.11 = type { %"struct.std::atomic.12", [56 x i8] }
%"struct.std::atomic.12" = type { %"struct.std::__atomic_base.13" }
%"struct.std::__atomic_base.13" = type { ptr }
%"struct.grpc_core::MultiProducerSingleConsumerQueue::Node" = type { %"struct.std::atomic.12" }

; Function Attrs: mustprogress nounwind uwtable
define linkonce_odr void @_ZNSt13__atomic_baseIPN9grpc_core32MultiProducerSingleConsumerQueue4NodeEEC2ES3_(ptr noundef nonnull align 8 dereferenceable(8) %0, ptr noundef %1) unnamed_addr #4 comdat align 2 {
  %3 = alloca ptr, align 8
  %4 = alloca ptr, align 8
  store ptr %0, ptr %3, align 8, !tbaa !264
  store ptr %1, ptr %4, align 8, !tbaa !263
  %5 = load ptr, ptr %3, align 8
  %6 = getelementptr inbounds nuw %"struct.std::__atomic_base.13", ptr %5, i32 0, i32 0
  %7 = load ptr, ptr %4, align 8, !tbaa !263
  store ptr %7, ptr %6, align 8, !tbaa !266
  ret void
}

; Function Attrs: inlinehint mustprogress nounwind uwtable
define linkonce_odr void @_ZN9grpc_core32MultiProducerSingleConsumerQueue4NodeC2Ev(ptr noundef nonnull align 8 dereferenceable(8) %0) unnamed_addr #14 comdat align 2 {
  %2 = alloca ptr, align 8
  store ptr %0, ptr %2, align 8, !tbaa !263
  %3 = load ptr, ptr %2, align 8
  %4 = getelementptr inbounds nuw %"struct.grpc_core::MultiProducerSingleConsumerQueue::Node", ptr %3, i32 0, i32 0
  call void @_ZNSt6atomicIPN9grpc_core32MultiProducerSingleConsumerQueue4NodeEEC2ES3_(ptr noundef nonnull align 8 dereferenceable(8) %4, ptr noundef null) #3
  ret void
}

; Function Attrs: mustprogress nounwind uwtable
define linkonce_odr void @_ZNSt6atomicIPN9grpc_core32MultiProducerSingleConsumerQueue4NodeEEC2ES3_(ptr noundef nonnull align 8 dereferenceable(8) %0, ptr noundef %1) unnamed_addr #4 comdat align 2 {
  %3 = alloca ptr, align 8
  %4 = alloca ptr, align 8
  store ptr %0, ptr %3, align 8, !tbaa !261
  store ptr %1, ptr %4, align 8, !tbaa !263
  %5 = load ptr, ptr %3, align 8
  %6 = getelementptr inbounds nuw %"struct.std::atomic.12", ptr %5, i32 0, i32 0
  %7 = load ptr, ptr %4, align 8, !tbaa !263
  call void @_ZNSt13__atomic_baseIPN9grpc_core32MultiProducerSingleConsumerQueue4NodeEEC2ES3_(ptr noundef nonnull align 8 dereferenceable(8) %6, ptr noundef %7) #3
  ret void
}

; Function Attrs: mustprogress nounwind uwtable
define linkonce_odr void @_ZNSt13__atomic_baseIlEC2El(ptr noundef nonnull align 8 dereferenceable(8) %0, i64 noundef %1) unnamed_addr #4 comdat align 2 {
  %3 = alloca ptr, align 8
  %4 = alloca i64, align 8
  store ptr %0, ptr %3, align 8, !tbaa !56
  store i64 %1, ptr %4, align 8, !tbaa !58
  %5 = load ptr, ptr %3, align 8
  %6 = getelementptr inbounds nuw %"struct.std::__atomic_base", ptr %5, i32 0, i32 0
  %7 = load i64, ptr %4, align 8, !tbaa !58
  store i64 %7, ptr %6, align 8, !tbaa !267
  ret void
}

; Function Attrs: mustprogress nounwind uwtable
define linkonce_odr void @_ZN9grpc_core32MultiProducerSingleConsumerQueueC2Ev(ptr noundef nonnull align 8 dereferenceable(80) %0) unnamed_addr #4 comdat align 2 {
  %2 = alloca ptr, align 8
  store ptr %0, ptr %2, align 8, !tbaa !258
  %3 = load ptr, ptr %2, align 8
  %4 = getelementptr inbounds nuw %"class.grpc_core::MultiProducerSingleConsumerQueue", ptr %3, i32 0, i32 0
  %5 = getelementptr inbounds nuw %"class.grpc_core::MultiProducerSingleConsumerQueue", ptr %3, i32 0, i32 2
  call void @_ZNSt6atomicIPN9grpc_core32MultiProducerSingleConsumerQueue4NodeEEC2ES3_(ptr noundef nonnull align 8 dereferenceable(8) %4, ptr noundef %5) #3
  %6 = getelementptr inbounds nuw %"class.grpc_core::MultiProducerSingleConsumerQueue", ptr %3, i32 0, i32 1
  %7 = getelementptr inbounds nuw %"class.grpc_core::MultiProducerSingleConsumerQueue", ptr %3, i32 0, i32 2
  store ptr %7, ptr %6, align 8, !tbaa !260
  %8 = getelementptr inbounds nuw %"class.grpc_core::MultiProducerSingleConsumerQueue", ptr %3, i32 0, i32 2
  call void @_ZN9grpc_core32MultiProducerSingleConsumerQueue4NodeC2Ev(ptr noundef nonnull align 8 dereferenceable(8) %8) #3
  ret void
}

; Function Attrs: mustprogress nounwind uwtable
define linkonce_odr void @_ZNSt6atomicIlEC2El(ptr noundef nonnull align 8 dereferenceable(8) %0, i64 noundef %1) unnamed_addr #4 comdat align 2 {
  %3 = alloca ptr, align 8
  %4 = alloca i64, align 8
  store ptr %0, ptr %3, align 8, !tbaa !256
  store i64 %1, ptr %4, align 8, !tbaa !58
  %5 = load ptr, ptr %3, align 8
  %6 = load i64, ptr %4, align 8, !tbaa !58
  call void @_ZNSt13__atomic_baseIlEC2El(ptr noundef nonnull align 8 dereferenceable(8) %5, i64 noundef %6) #3
  ret void
}

; Function Attrs: mustprogress uwtable
define internal void @_ZN12_GLOBAL__N_112CqEventQueueC2Ev(ptr noundef nonnull align 8 dereferenceable(96) %0) unnamed_addr #6 align 2 {
  %2 = alloca ptr, align 8
  store ptr %0, ptr %2, align 8, !tbaa !253
  %3 = load ptr, ptr %2, align 8
  %4 = getelementptr inbounds nuw %"class.(anonymous namespace)::CqEventQueue", ptr %3, i32 0, i32 0
  %5 = getelementptr inbounds nuw %struct.gpr_spinlock, ptr %4, i32 0, i32 0
  store i64 0, ptr %5, align 8, !tbaa !255
  %6 = getelementptr inbounds nuw %"class.(anonymous namespace)::CqEventQueue", ptr %3, i32 0, i32 1
  call void @_ZN9grpc_core32MultiProducerSingleConsumerQueueC2Ev(ptr noundef nonnull align 8 dereferenceable(80) %6)
  %7 = getelementptr inbounds nuw %"class.(anonymous namespace)::CqEventQueue", ptr %3, i32 0, i32 2
  call void @_ZNSt6atomicIlEC2El(ptr noundef nonnull align 8 dereferenceable(8) %7, i64 noundef 0) #3
  ret void
}

; Function Attrs: inlinehint mustprogress uwtable
define internal void @_ZN12_GLOBAL__N_112cq_next_dataC2Ev(ptr noundef nonnull align 8 dereferenceable(113) %0) unnamed_addr #13 align 2 {
  %2 = alloca ptr, align 8
  store ptr %0, ptr %2, align 8, !tbaa !24
  %3 = load ptr, ptr %2, align 8
  %4 = getelementptr inbounds nuw %"struct.(anonymous namespace)::cq_next_data", ptr %3, i32 0, i32 0
  call void @_ZN12_GLOBAL__N_112CqEventQueueC2Ev(ptr noundef nonnull align 8 dereferenceable(96) %4)
  %5 = getelementptr inbounds nuw %"struct.(anonymous namespace)::cq_next_data", ptr %3, i32 0, i32 1
  call void @_ZNSt6atomicIlEC2El(ptr noundef nonnull align 8 dereferenceable(8) %5, i64 noundef 0) #3
  %6 = getelementptr inbounds nuw %"struct.(anonymous namespace)::cq_next_data", ptr %3, i32 0, i32 2
  call void @_ZNSt6atomicIlEC2El(ptr noundef nonnull align 8 dereferenceable(8) %6, i64 noundef 1) #3
  %7 = getelementptr inbounds nuw %"struct.(anonymous namespace)::cq_next_data", ptr %3, i32 0, i32 3
  store i8 0, ptr %7, align 8, !tbaa !63
  ret void
}

; Function Attrs: mustprogress uwtable
define internal void @_ZL12cq_init_nextPvP29grpc_completion_queue_functor(ptr noundef %0, ptr noundef %1) #6 {
  %3 = alloca ptr, align 8
  %4 = alloca ptr, align 8
  store ptr %0, ptr %3, align 8, !tbaa !20
  store ptr %1, ptr %4, align 8, !tbaa !88
  %5 = load ptr, ptr %3, align 8, !tbaa !20
  call void @llvm.memset.p0.i64(ptr align 8 %5, i8 0, i64 120, i1 false)
  call void @_ZN12_GLOBAL__N_112cq_next_dataC2Ev(ptr noundef nonnull align 8 dereferenceable(113) %5)
  ret void
}