; Function Attrs: mustprogress nofree norecurse nosync nounwind willreturn memory(argmem: write) uwtable
define internal void @_ZL12cq_init_nextPvP29grpc_completion_queue_functor(ptr noundef initializes((0, 120)) %0, ptr readnone captures(none) %1) #23 {
  %3 = getelementptr inbounds nuw i8, ptr %0, i64 8
  %4 = getelementptr inbounds nuw i8, ptr %0, i64 80
  tail call void @llvm.memset.p0.i64(ptr noundef nonnull align 8 dereferenceable(120) %0, i8 0, i64 120, i1 false)
  store ptr %4, ptr %3, align 8, !tbaa !124
  %5 = getelementptr inbounds nuw i8, ptr %0, i64 72
  store ptr %4, ptr %5, align 8, !tbaa !125
  %6 = getelementptr inbounds nuw i8, ptr %0, i64 104
  tail call void @llvm.memset.p0.i64(ptr noundef nonnull align 8 dereferenceable(24) %4, i8 0, i64 24, i1 false)
  store i64 1, ptr %6, align 8, !tbaa !83
  ret void
}